target datalayout = "e-m:e-p270:32:32-p271:32:32-p272:64:64-i64:64-i128:128-f80:128-n8:16:32:64-S128"
target triple = "x86_64-pc-linux-gnu"

%struct.GifFileType = type { i32, i32, i32, i32, i8, ptr, i32, %struct.GifImageDesc, ptr, i32, ptr, i32, ptr, ptr }
%struct.GifImageDesc = type { i32, i32, i32, i32, i8, ptr }
%struct.GifFilePrivateType = type { i32, i32, i32, i32, i32, i32, i32, i32, i32, i32, i32, i32, i64, i64, ptr, ptr, ptr, [256 x i8], [4095 x i8], [4096 x i8], [4096 x i32], ptr, i8 }

@.str.2 = private unnamed_addr constant [7 x i8] c"GIF89a\00", align 1
@.str.3 = private unnamed_addr constant [7 x i8] c"GIF87a\00", align 1

; Function Attrs: nounwind uwtable
define hidden ptr @DGifGetGifVersion(ptr noundef %0) #0 {
  %2 = alloca ptr, align 8
  %3 = alloca ptr, align 8
  %4 = alloca ptr, align 8
  store ptr %0, ptr %3, align 8
  %5 = load ptr, ptr %3, align 8
  %6 = getelementptr inbounds %struct.GifFileType, ptr %5, i32 0, i32 13
  %7 = load ptr, ptr %6, align 8
  store ptr %7, ptr %4, align 8
  %8 = load ptr, ptr %4, align 8
  %9 = getelementptr inbounds %struct.GifFilePrivateType, ptr %8, i32 0, i32 22
  %10 = load i8, ptr %9, align 8
  %11 = trunc i8 %10 to i1
  br i1 %11, label %12, label %13

12:                                               ; preds = %1
  store ptr @.str.2, ptr %2, align 8
  br label %14

13:                                               ; preds = %1
  store ptr @.str.3, ptr %2, align 8
  br label %14

14:                                               ; preds = %13, %12
  %15 = load ptr, ptr %2, align 8
  ret ptr %15
}