; Function Attrs: mustprogress nofree norecurse nosync nounwind willreturn memory(read, inaccessiblemem: none) uwtable
define hidden nonnull ptr @DGifGetGifVersion(ptr nocapture noundef readonly %0) local_unnamed_addr #7 {
  %2 = getelementptr inbounds i8, ptr %0, i64 112
  %3 = load ptr, ptr %2, align 8
  %4 = getelementptr inbounds i8, ptr %3, i64 24928
  %5 = load i8, ptr %4, align 8
  %6 = trunc i8 %5 to i1
  %.str.2..str.3 = select i1 %6, ptr @.str.2, ptr @.str.3
  ret ptr %.str.2..str.3
}